; Function Attrs: nounwind sspstrong uwtable
define internal i64 @asn1obj_get_oid_i(i64 noundef %0) #0 {
  %2 = inttoptr i64 %0 to ptr
  %3 = tail call i64 @rb_usascii_str_new_static(ptr noundef null, i64 noundef 127) #9
  %4 = inttoptr i64 %3 to ptr
  %5 = load i64, ptr %4, align 8, !tbaa !32, !noalias !104
  %6 = and i64 %5, 8192
  %.not.i.i = icmp eq i64 %6, 0
  %7 = getelementptr inbounds nuw i8, ptr %4, i64 24
  br i1 %.not.i.i, label %RSTRING_PTR.exit, label %8

8:                                                ; preds = %1
  %.sroa.2.0.copyload.i = load ptr, ptr %7, align 8
  br label %RSTRING_PTR.exit

RSTRING_PTR.exit:                                 ; preds = %1, %8
  %.sroa.2.0.i = phi ptr [ %.sroa.2.0.copyload.i, %8 ], [ %7, %1 ]
  %9 = getelementptr inbounds nuw i8, ptr %4, i64 16
  %10 = load i64, ptr %9, align 8, !tbaa !38
  %11 = add i64 %10, 2147483648
  %.not.i.i19 = icmp ult i64 %11, 4294967296
  br i1 %.not.i.i19, label %RSTRING_LENINT.exit, label %12

12:                                               ; preds = %RSTRING_PTR.exit
  tail call void @rb_out_of_int(i64 noundef %10) #11
  unreachable

RSTRING_LENINT.exit:                              ; preds = %RSTRING_PTR.exit
  %13 = trunc i64 %10 to i32
  %14 = tail call i32 @OBJ_obj2txt(ptr noundef %.sroa.2.0.i, i32 noundef %13, ptr noundef %2, i32 noundef 1) #9
  %15 = add i32 %14, -2147483647
  %or.cond = icmp ult i32 %15, -2147483646
  br i1 %or.cond, label %16, label %18

16:                                               ; preds = %RSTRING_LENINT.exit
  %17 = load i64, ptr @eASN1Error, align 8, !tbaa !17
  tail call void (i64, ptr, ...) @ossl_raise(i64 noundef %17, ptr noundef nonnull @.str.124) #10
  unreachable

18:                                               ; preds = %RSTRING_LENINT.exit
  %19 = zext nneg i32 %14 to i64
  %20 = load i64, ptr %9, align 8, !tbaa !38
  %21 = icmp slt i64 %20, %19
  br i1 %21, label %22, label %33

22:                                               ; preds = %18
  %23 = add nuw nsw i32 %14, 1
  %24 = zext nneg i32 %23 to i64
  %25 = tail call i64 @rb_str_resize(i64 noundef %3, i64 noundef %24) #9
  %26 = load i64, ptr %4, align 8, !tbaa !32, !noalias !107
  %27 = and i64 %26, 8192
  %.not.i.i20 = icmp eq i64 %27, 0
  br i1 %.not.i.i20, label %RSTRING_PTR.exit23, label %28

28:                                               ; preds = %22
  %.sroa.2.0.copyload.i21 = load ptr, ptr %7, align 8
  br label %RSTRING_PTR.exit23

RSTRING_PTR.exit23:                               ; preds = %22, %28
  %.sroa.2.0.i22 = phi ptr [ %.sroa.2.0.copyload.i21, %28 ], [ %7, %22 ]
  %29 = tail call i32 @OBJ_obj2txt(ptr noundef %.sroa.2.0.i22, i32 noundef %23, ptr noundef %2, i32 noundef 1) #9
  %30 = icmp slt i32 %29, 1
  br i1 %30, label %31, label %RSTRING_PTR.exit23._crit_edge

RSTRING_PTR.exit23._crit_edge:                    ; preds = %RSTRING_PTR.exit23
  %.pre = zext nneg i32 %29 to i64
  br label %33

31:                                               ; preds = %RSTRING_PTR.exit23
  %32 = load i64, ptr @eASN1Error, align 8, !tbaa !17
  tail call void (i64, ptr, ...) @ossl_raise(i64 noundef %32, ptr noundef nonnull @.str.124) #10
  unreachable

33:                                               ; preds = %RSTRING_PTR.exit23._crit_edge, %18
  %.pre-phi = phi i64 [ %.pre, %RSTRING_PTR.exit23._crit_edge ], [ %19, %18 ]
  tail call void @rb_str_set_len(i64 noundef %3, i64 noundef %.pre-phi) #9
  ret i64 %3
}